target datalayout = "e-m:e-p270:32:32-p271:32:32-p272:64:64-i64:64-i128:128-f80:128-n8:16:32:64-S128"
target triple = "x86_64-pc-linux-gnu"

%struct.H5F_t = type { ptr, ptr, ptr, ptr, i32, ptr, i8, i8, ptr, i32 }
%struct.H5F_shared_t = type { ptr, ptr, ptr, i8, i32, i32, %struct.H5F_mtab_t, ptr, i8, i8, i64, i32, i32, i64, i64, ptr, ptr, %struct.H5AC_cache_config_t, %struct.H5AC_cache_image_config_t, i8, i8, ptr, i64, i32, i8, i64, i64, double, i64, i64, i64, i32, i32, i32, i8, i32, ptr, ptr, ptr, ptr, i8, i8, i8, i64, ptr, ptr, i32, i64, i8, i32, i8, i64, i8, [13 x i32], [13 x i64], [13 x ptr], i8, i64, i64, [7 x i32], [7 x i32], %struct.H5F_blk_aggr_t, %struct.H5F_blk_aggr_t, i64, i64, %struct.H5F_meta_accum_t, i32, i32, [30 x ptr], %struct.H5F_object_flush_t, i8, ptr }
%struct.H5F_mtab_t = type { i32, i32, ptr }
%struct.H5AC_cache_config_t = type { i32, i8, i8, i8, [1025 x i8], i8, i8, i64, double, i64, i64, i64, i32, double, double, i8, i64, i32, double, double, i32, double, double, i8, i64, i32, i8, double, i64, i32 }
%struct.H5AC_cache_image_config_t = type { i32, i8, i8, i32 }
%struct.H5F_blk_aggr_t = type { i64, i64, i64, i64, i64 }
%struct.H5F_meta_accum_t = type { ptr, i64, i64, i64, i64, i64, i8 }
%struct.H5F_object_flush_t = type { ptr, ptr }
%struct.H5F_mount_t = type { ptr, ptr }
%struct.H5O_loc_t = type { ptr, i64, i8 }

@H5F_init_g = external global i8, align 1
@H5_libterm_g = external global i8, align 1
@.str = private unnamed_addr constant [102 x i8] c"generated/home/dtcxzyw/WorkSpace/Projects/compilers/llvm-opt-benchmark/bench/hdf5/hdf5/src/H5Fmount.c\00", align 1
@H5E_FILE_g = external global i64, align 8
@H5E_FUNC_g = external global i64, align 8
@H5E_CANTINIT_g = external global i64, align 8
@.str.3 = private unnamed_addr constant [32 x i8] c"interface initialization failed\00", align 1
@__func__.H5F_traverse_mount = private unnamed_addr constant [19 x i8] c"H5F_traverse_mount\00", align 1
@H5E_CANTFREE_g = external global i64, align 8
@.str.23 = private unnamed_addr constant [31 x i8] c"unable to free object location\00", align 1
@H5E_CANTCOPY_g = external global i64, align 8
@.str.24 = private unnamed_addr constant [31 x i8] c"unable to copy object location\00", align 1

; Function Attrs: nounwind uwtable
define i32 @H5F_traverse_mount(ptr noundef %0) #0 {
  %2 = alloca ptr, align 8
  %3 = alloca ptr, align 8
  %4 = alloca ptr, align 8
  %5 = alloca i32, align 4
  %6 = alloca i32, align 4
  %7 = alloca i32, align 4
  %8 = alloca i32, align 4
  %9 = alloca ptr, align 8
  %10 = alloca i32, align 4
  %11 = alloca i8, align 1
  store ptr %0, ptr %2, align 8, !tbaa !63
  call void @llvm.lifetime.start.p0(i64 8, ptr %3) #5
  %12 = load ptr, ptr %2, align 8, !tbaa !63
  %13 = getelementptr inbounds nuw %struct.H5O_loc_t, ptr %12, i32 0, i32 0
  %14 = load ptr, ptr %13, align 8, !tbaa !69
  store ptr %14, ptr %3, align 8, !tbaa !3
  call void @llvm.lifetime.start.p0(i64 8, ptr %4) #5
  store ptr null, ptr %4, align 8, !tbaa !3
  call void @llvm.lifetime.start.p0(i64 4, ptr %5) #5
  call void @llvm.lifetime.start.p0(i64 4, ptr %6) #5
  call void @llvm.lifetime.start.p0(i64 4, ptr %7) #5
  store i32 0, ptr %7, align 4, !tbaa !8
  call void @llvm.lifetime.start.p0(i64 4, ptr %8) #5
  call void @llvm.lifetime.start.p0(i64 8, ptr %9) #5
  store ptr null, ptr %9, align 8, !tbaa !63
  call void @llvm.lifetime.start.p0(i64 4, ptr %10) #5
  store i32 0, ptr %10, align 4, !tbaa !8
  call void @llvm.lifetime.start.p0(i64 1, ptr %11) #5
  store i8 0, ptr %11, align 1, !tbaa !10
  %15 = load i8, ptr @H5F_init_g, align 1, !tbaa !10, !range !12, !noundef !13
  %16 = trunc i8 %15 to i1
  br i1 %16, label %21, label %17

17:                                               ; preds = %1
  %18 = load i8, ptr @H5_libterm_g, align 1, !tbaa !10, !range !12, !noundef !13
  %19 = trunc i8 %18 to i1
  %20 = xor i1 %19, true
  br label %21

21:                                               ; preds = %17, %1
  %22 = phi i1 [ false, %1 ], [ %20, %17 ]
  %23 = xor i1 %22, true
  %24 = xor i1 %23, true
  %25 = zext i1 %24 to i32
  %26 = sext i32 %25 to i64
  %27 = call i64 @llvm.expect.i64(i64 %26, i64 0)
  %28 = icmp ne i64 %27, 0
  br i1 %28, label %29, label %52

29:                                               ; preds = %21
  store i8 1, ptr @H5F_init_g, align 1, !tbaa !10
  %30 = call i32 @H5F__init_package()
  %31 = icmp slt i32 %30, 0
  br i1 %31, label %32, label %51

32:                                               ; preds = %29
  store i8 0, ptr @H5F_init_g, align 1, !tbaa !10
  br label %33

33:                                               ; preds = %32
  br label %34

34:                                               ; preds = %33
  br label %35

35:                                               ; preds = %34
  %36 = load i64, ptr @H5E_FUNC_g, align 8, !tbaa !46
  %37 = load i64, ptr @H5E_CANTINIT_g, align 8, !tbaa !46
  %38 = call i32 (ptr, ptr, i32, i64, i64, ptr, ...) @H5E_printf_stack(ptr noundef @.str, ptr noundef @__func__.H5F_traverse_mount, i32 noundef 573, i64 noundef %36, i64 noundef %37, ptr noundef @.str.3)
  br label %39

39:                                               ; preds = %35
  br label %40

40:                                               ; preds = %39
  store i8 1, ptr %11, align 1, !tbaa !10
  %41 = load i8, ptr %11, align 1, !tbaa !10, !range !12, !noundef !13
  %42 = trunc i8 %41 to i1
  %43 = zext i1 %42 to i8
  store i8 %43, ptr %11, align 1, !tbaa !10
  br label %44

44:                                               ; preds = %40
  br label %45

45:                                               ; preds = %44
  br label %46

46:                                               ; preds = %45
  store i32 -1, ptr %10, align 4, !tbaa !8
  br label %223

47:                                               ; No predecessors!
  br label %48

48:                                               ; preds = %47
  br label %49

49:                                               ; preds = %48
  br label %50

50:                                               ; preds = %49
  br label %51

51:                                               ; preds = %50, %29
  br label %52

52:                                               ; preds = %51, %21
  %53 = load i8, ptr @H5F_init_g, align 1, !tbaa !10, !range !12, !noundef !13
  %54 = trunc i8 %53 to i1
  br i1 %54, label %59, label %55

55:                                               ; preds = %52
  %56 = load i8, ptr @H5_libterm_g, align 1, !tbaa !10, !range !12, !noundef !13
  %57 = trunc i8 %56 to i1
  %58 = xor i1 %57, true
  br label %59

59:                                               ; preds = %55, %52
  %60 = phi i1 [ true, %52 ], [ %58, %55 ]
  %61 = xor i1 %60, true
  %62 = xor i1 %61, true
  %63 = zext i1 %62 to i32
  %64 = sext i32 %63 to i64
  %65 = call i64 @llvm.expect.i64(i64 %64, i64 1)
  %66 = icmp ne i64 %65, 0
  br i1 %66, label %67, label %224

67:                                               ; preds = %59
  br label %68

68:                                               ; preds = %218, %67
  store i32 0, ptr %5, align 4, !tbaa !8
  %69 = load ptr, ptr %3, align 8, !tbaa !3
  %70 = getelementptr inbounds nuw %struct.H5F_t, ptr %69, i32 0, i32 2
  %71 = load ptr, ptr %70, align 8, !tbaa !14
  %72 = getelementptr inbounds nuw %struct.H5F_shared_t, ptr %71, i32 0, i32 6
  %73 = getelementptr inbounds nuw %struct.H5F_mtab_t, ptr %72, i32 0, i32 0
  %74 = load i32, ptr %73, align 8, !tbaa !20
  store i32 %74, ptr %6, align 4, !tbaa !8
  store i32 -1, ptr %8, align 4, !tbaa !8
  br label %75

75:                                               ; preds = %144, %68
  %76 = load i32, ptr %5, align 4, !tbaa !8
  %77 = load i32, ptr %6, align 4, !tbaa !8
  %78 = icmp ult i32 %76, %77
  br i1 %78, label %79, label %82

79:                                               ; preds = %75
  %80 = load i32, ptr %8, align 4, !tbaa !8
  %81 = icmp ne i32 %80, 0
  br label %82

82:                                               ; preds = %79, %75
  %83 = phi i1 [ false, %75 ], [ %81, %79 ]
  br i1 %83, label %84, label %145

84:                                               ; preds = %82
  %85 = load i32, ptr %5, align 4, !tbaa !8
  %86 = load i32, ptr %6, align 4, !tbaa !8
  %87 = add i32 %85, %86
  %88 = udiv i32 %87, 2
  store i32 %88, ptr %7, align 4, !tbaa !8
  %89 = load ptr, ptr %3, align 8, !tbaa !3
  %90 = getelementptr inbounds nuw %struct.H5F_t, ptr %89, i32 0, i32 2
  %91 = load ptr, ptr %90, align 8, !tbaa !14
  %92 = getelementptr inbounds nuw %struct.H5F_shared_t, ptr %91, i32 0, i32 6
  %93 = getelementptr inbounds nuw %struct.H5F_mtab_t, ptr %92, i32 0, i32 2
  %94 = load ptr, ptr %93, align 8, !tbaa !41
  %95 = load i32, ptr %7, align 4, !tbaa !8
  %96 = zext i32 %95 to i64
  %97 = getelementptr inbounds nuw %struct.H5F_mount_t, ptr %94, i64 %96
  %98 = getelementptr inbounds nuw %struct.H5F_mount_t, ptr %97, i32 0, i32 0
  %99 = load ptr, ptr %98, align 8, !tbaa !45
  %100 = call ptr @H5G_oloc(ptr noundef %99)
  store ptr %100, ptr %9, align 8, !tbaa !63
  %101 = load ptr, ptr %2, align 8, !tbaa !63
  %102 = getelementptr inbounds nuw %struct.H5O_loc_t, ptr %101, i32 0, i32 1
  %103 = load i64, ptr %102, align 8, !tbaa !64
  %104 = icmp ne i64 %103, -1
  br i1 %104, label %105, label %114

105:                                              ; preds = %84
  %106 = load ptr, ptr %2, align 8, !tbaa !63
  %107 = getelementptr inbounds nuw %struct.H5O_loc_t, ptr %106, i32 0, i32 1
  %108 = load i64, ptr %107, align 8, !tbaa !64
  %109 = load ptr, ptr %9, align 8, !tbaa !63
  %110 = getelementptr inbounds nuw %struct.H5O_loc_t, ptr %109, i32 0, i32 1
  %111 = load i64, ptr %110, align 8, !tbaa !64
  %112 = icmp eq i64 %108, %111
  br i1 %112, label %113, label %114

113:                                              ; preds = %105
  br label %135

114:                                              ; preds = %105, %84
  %115 = load ptr, ptr %2, align 8, !tbaa !63
  %116 = getelementptr inbounds nuw %struct.H5O_loc_t, ptr %115, i32 0, i32 1
  %117 = load i64, ptr %116, align 8, !tbaa !64
  %118 = icmp ne i64 %117, -1
  br i1 %118, label %119, label %132

119:                                              ; preds = %114
  %120 = load ptr, ptr %9, align 8, !tbaa !63
  %121 = getelementptr inbounds nuw %struct.H5O_loc_t, ptr %120, i32 0, i32 1
  %122 = load i64, ptr %121, align 8, !tbaa !64
  %123 = icmp ne i64 %122, -1
  br i1 %123, label %124, label %132

124:                                              ; preds = %119
  %125 = load ptr, ptr %2, align 8, !tbaa !63
  %126 = getelementptr inbounds nuw %struct.H5O_loc_t, ptr %125, i32 0, i32 1
  %127 = load i64, ptr %126, align 8, !tbaa !64
  %128 = load ptr, ptr %9, align 8, !tbaa !63
  %129 = getelementptr inbounds nuw %struct.H5O_loc_t, ptr %128, i32 0, i32 1
  %130 = load i64, ptr %129, align 8, !tbaa !64
  %131 = icmp ult i64 %127, %130
  br label %132

132:                                              ; preds = %124, %119, %114
  %133 = phi i1 [ false, %119 ], [ false, %114 ], [ %131, %124 ]
  %134 = select i1 %133, i32 -1, i32 1
  br label %135

135:                                              ; preds = %132, %113
  %136 = phi i32 [ 0, %113 ], [ %134, %132 ]
  store i32 %136, ptr %8, align 4, !tbaa !8
  %137 = load i32, ptr %8, align 4, !tbaa !8
  %138 = icmp slt i32 %137, 0
  br i1 %138, label %139, label %141

139:                                              ; preds = %135
  %140 = load i32, ptr %7, align 4, !tbaa !8
  store i32 %140, ptr %6, align 4, !tbaa !8
  br label %144

141:                                              ; preds = %135
  %142 = load i32, ptr %7, align 4, !tbaa !8
  %143 = add i32 %142, 1
  store i32 %143, ptr %5, align 4, !tbaa !8
  br label %144

144:                                              ; preds = %141, %139
  br label %75, !llvm.loop !83

145:                                              ; preds = %82
  %146 = load i32, ptr %8, align 4, !tbaa !8
  %147 = icmp eq i32 0, %146
  br i1 %147, label %148, label %217

148:                                              ; preds = %145
  %149 = load ptr, ptr %3, align 8, !tbaa !3
  %150 = getelementptr inbounds nuw %struct.H5F_t, ptr %149, i32 0, i32 2
  %151 = load ptr, ptr %150, align 8, !tbaa !14
  %152 = getelementptr inbounds nuw %struct.H5F_shared_t, ptr %151, i32 0, i32 6
  %153 = getelementptr inbounds nuw %struct.H5F_mtab_t, ptr %152, i32 0, i32 2
  %154 = load ptr, ptr %153, align 8, !tbaa !41
  %155 = load i32, ptr %7, align 4, !tbaa !8
  %156 = zext i32 %155 to i64
  %157 = getelementptr inbounds nuw %struct.H5F_mount_t, ptr %154, i64 %156
  %158 = getelementptr inbounds nuw %struct.H5F_mount_t, ptr %157, i32 0, i32 1
  %159 = load ptr, ptr %158, align 8, !tbaa !42
  store ptr %159, ptr %4, align 8, !tbaa !3
  %160 = load ptr, ptr %4, align 8, !tbaa !3
  %161 = getelementptr inbounds nuw %struct.H5F_t, ptr %160, i32 0, i32 2
  %162 = load ptr, ptr %161, align 8, !tbaa !14
  %163 = getelementptr inbounds nuw %struct.H5F_shared_t, ptr %162, i32 0, i32 37
  %164 = load ptr, ptr %163, align 8, !tbaa !68
  %165 = call ptr @H5G_oloc(ptr noundef %164)
  store ptr %165, ptr %9, align 8, !tbaa !63
  %166 = load ptr, ptr %2, align 8, !tbaa !63
  %167 = call i32 @H5O_loc_free(ptr noundef %166)
  %168 = icmp slt i32 %167, 0
  br i1 %168, label %169, label %188

169:                                              ; preds = %148
  br label %170

170:                                              ; preds = %169
  br label %171

171:                                              ; preds = %170
  br label %172

172:                                              ; preds = %171
  %173 = load i64, ptr @H5E_FILE_g, align 8, !tbaa !46
  %174 = load i64, ptr @H5E_CANTFREE_g, align 8, !tbaa !46
  %175 = call i32 (ptr, ptr, i32, i64, i64, ptr, ...) @H5E_printf_stack(ptr noundef @.str, ptr noundef @__func__.H5F_traverse_mount, i32 noundef 610, i64 noundef %173, i64 noundef %174, ptr noundef @.str.23)
  br label %176

176:                                              ; preds = %172
  br label %177

177:                                              ; preds = %176
  store i8 1, ptr %11, align 1, !tbaa !10
  %178 = load i8, ptr %11, align 1, !tbaa !10, !range !12, !noundef !13
  %179 = trunc i8 %178 to i1
  %180 = zext i1 %179 to i8
  store i8 %180, ptr %11, align 1, !tbaa !10
  br label %181

181:                                              ; preds = %177
  br label %182

182:                                              ; preds = %181
  br label %183

183:                                              ; preds = %182
  store i32 -1, ptr %10, align 4, !tbaa !8
  br label %223

184:                                              ; No predecessors!
  br label %185

185:                                              ; preds = %184
  br label %186

186:                                              ; preds = %185
  br label %187

187:                                              ; preds = %186
  br label %188

188:                                              ; preds = %187, %148
  %189 = load ptr, ptr %2, align 8, !tbaa !63
  %190 = load ptr, ptr %9, align 8, !tbaa !63
  %191 = call i32 @H5O_loc_copy_deep(ptr noundef %189, ptr noundef %190)
  %192 = icmp slt i32 %191, 0
  br i1 %192, label %193, label %212

193:                                              ; preds = %188
  br label %194

194:                                              ; preds = %193
  br label %195

195:                                              ; preds = %194
  br label %196

196:                                              ; preds = %195
  %197 = load i64, ptr @H5E_FILE_g, align 8, !tbaa !46
  %198 = load i64, ptr @H5E_CANTCOPY_g, align 8, !tbaa !46
  %199 = call i32 (ptr, ptr, i32, i64, i64, ptr, ...) @H5E_printf_stack(ptr noundef @.str, ptr noundef @__func__.H5F_traverse_mount, i32 noundef 614, i64 noundef %197, i64 noundef %198, ptr noundef @.str.24)
  br label %200

200:                                              ; preds = %196
  br label %201

201:                                              ; preds = %200
  store i8 1, ptr %11, align 1, !tbaa !10
  %202 = load i8, ptr %11, align 1, !tbaa !10, !range !12, !noundef !13
  %203 = trunc i8 %202 to i1
  %204 = zext i1 %203 to i8
  store i8 %204, ptr %11, align 1, !tbaa !10
  br label %205

205:                                              ; preds = %201
  br label %206

206:                                              ; preds = %205
  br label %207

207:                                              ; preds = %206
  store i32 -1, ptr %10, align 4, !tbaa !8
  br label %223

208:                                              ; No predecessors!
  br label %209

209:                                              ; preds = %208
  br label %210

210:                                              ; preds = %209
  br label %211

211:                                              ; preds = %210
  br label %212

212:                                              ; preds = %211, %188
  %213 = load ptr, ptr %4, align 8, !tbaa !3
  %214 = load ptr, ptr %2, align 8, !tbaa !63
  %215 = getelementptr inbounds nuw %struct.H5O_loc_t, ptr %214, i32 0, i32 0
  store ptr %213, ptr %215, align 8, !tbaa !69
  %216 = load ptr, ptr %4, align 8, !tbaa !3
  store ptr %216, ptr %3, align 8, !tbaa !3
  br label %217

217:                                              ; preds = %212, %145
  br label %218

218:                                              ; preds = %217
  %219 = load i32, ptr %8, align 4, !tbaa !8
  %220 = icmp ne i32 %219, 0
  %221 = xor i1 %220, true
  br i1 %221, label %68, label %222, !llvm.loop !84

222:                                              ; preds = %218
  br label %223

223:                                              ; preds = %222, %207, %183, %46
  br label %224

224:                                              ; preds = %223, %59
  %225 = load i32, ptr %10, align 4, !tbaa !8
  call void @llvm.lifetime.end.p0(i64 1, ptr %11) #5
  call void @llvm.lifetime.end.p0(i64 4, ptr %10) #5
  call void @llvm.lifetime.end.p0(i64 8, ptr %9) #5
  call void @llvm.lifetime.end.p0(i64 4, ptr %8) #5
  call void @llvm.lifetime.end.p0(i64 4, ptr %7) #5
  call void @llvm.lifetime.end.p0(i64 4, ptr %6) #5
  call void @llvm.lifetime.end.p0(i64 4, ptr %5) #5
  call void @llvm.lifetime.end.p0(i64 8, ptr %4) #5
  call void @llvm.lifetime.end.p0(i64 8, ptr %3) #5
  ret i32 %225
}