; Function Attrs: nounwind uwtable
define range(i32 -1, 1) i32 @H5F_traverse_mount(ptr noundef %0) local_unnamed_addr #0 {
  %2 = load ptr, ptr %0, align 8, !tbaa !62
  %3 = load i8, ptr @H5F_init_g, align 1, !tbaa !3, !range !7, !noundef !8
  %4 = trunc nuw i8 %3 to i1
  %5 = load i8, ptr @H5_libterm_g, align 1, !range !7
  %6 = trunc nuw i8 %5 to i1
  %7 = select i1 %4, i1 true, i1 %6
  br i1 %7, label %15, label %8, !prof !9

8:                                                ; preds = %1
  store i8 1, ptr @H5F_init_g, align 1, !tbaa !3
  %9 = tail call i32 @H5F__init_package() #6
  %10 = icmp slt i32 %9, 0
  br i1 %10, label %11, label %._crit_edge54

._crit_edge54:                                    ; preds = %8
  %.pre = load i8, ptr @H5F_init_g, align 1, !tbaa !3, !range !7
  %.pre55 = load i8, ptr @H5_libterm_g, align 1, !range !7
  %.pre56 = trunc nuw i8 %.pre to i1
  %.pre57 = trunc nuw i8 %.pre55 to i1
  br label %15

11:                                               ; preds = %8
  store i8 0, ptr @H5F_init_g, align 1, !tbaa !3
  %12 = load i64, ptr @H5E_FUNC_g, align 8, !tbaa !45
  %13 = load i64, ptr @H5E_CANTINIT_g, align 8, !tbaa !45
  %14 = tail call i32 (ptr, ptr, i32, i64, i64, ptr, ...) @H5E_printf_stack(ptr noundef nonnull @.str, ptr noundef nonnull @__func__.H5F_traverse_mount, i32 noundef 573, i64 noundef %12, i64 noundef %13, ptr noundef nonnull @.str.3) #6
  br label %.loopexit

15:                                               ; preds = %._crit_edge54, %1
  %.pre-phi58 = phi i1 [ %.pre57, %._crit_edge54 ], [ %6, %1 ]
  %.pre-phi = phi i1 [ %.pre56, %._crit_edge54 ], [ %4, %1 ]
  %16 = xor i1 %.pre-phi58, true
  %17 = select i1 %.pre-phi, i1 true, i1 %16
  br i1 %17, label %.preheader, label %.loopexit, !prof !9

.preheader:                                       ; preds = %15
  %18 = getelementptr inbounds nuw i8, ptr %0, i64 8
  br label %.outer

.outer:                                           ; preds = %73, %.preheader
  %.039.ph = phi ptr [ %54, %73 ], [ %2, %.preheader ]
  %19 = getelementptr inbounds nuw i8, ptr %.039.ph, i64 16
  %20 = load ptr, ptr %19, align 8, !tbaa !10
  %21 = getelementptr inbounds nuw i8, ptr %20, i64 40
  %22 = load i32, ptr %21, align 8, !tbaa !19
  %.not50 = icmp eq i32 %22, 0
  br i1 %.not50, label %.loopexit, label %.lr.ph

.lr.ph:                                           ; preds = %.outer, %.thread
  %.03547 = phi i32 [ %.136, %.thread ], [ %22, %.outer ]
  %.03746 = phi i32 [ %.138, %.thread ], [ 0, %.outer ]
  %23 = add i32 %.03547, %.03746
  %24 = lshr i32 %23, 1
  %25 = load ptr, ptr %19, align 8, !tbaa !10
  %26 = getelementptr inbounds nuw i8, ptr %25, i64 48
  %27 = load ptr, ptr %26, align 8, !tbaa !40
  %28 = zext nneg i32 %24 to i64
  %29 = getelementptr inbounds nuw %struct.H5F_mount_t, ptr %27, i64 %28
  %30 = load ptr, ptr %29, align 8, !tbaa !44
  %31 = tail call ptr @H5G_oloc(ptr noundef %30) #6
  %32 = load i64, ptr %18, align 8, !tbaa !58
  %.not = icmp eq i64 %32, -1
  br i1 %.not, label %.thread, label %33

33:                                               ; preds = %.lr.ph
  %34 = getelementptr inbounds nuw i8, ptr %31, i64 8
  %35 = load i64, ptr %34, align 8, !tbaa !58
  %36 = icmp eq i64 %32, %35
  br i1 %36, label %.thread, label %37

37:                                               ; preds = %33
  %.not45 = icmp eq i64 %35, -1
  br i1 %.not45, label %.thread, label %38

38:                                               ; preds = %37
  %39 = icmp ult i64 %32, %35
  %40 = select i1 %39, i32 -1, i32 1
  br label %.thread

.thread:                                          ; preds = %.lr.ph, %37, %38, %33
  %41 = phi i32 [ 0, %33 ], [ 1, %37 ], [ %40, %38 ], [ 1, %.lr.ph ]
  %42 = icmp slt i32 %41, 0
  %43 = add nuw i32 %24, 1
  %.138 = select i1 %42, i32 %.03746, i32 %43
  %.136 = select i1 %42, i32 %24, i32 %.03547
  %44 = icmp ult i32 %.138, %.136
  %45 = icmp ne i32 %41, 0
  %46 = and i1 %44, %45
  br i1 %46, label %.lr.ph, label %._crit_edge, !llvm.loop !75

._crit_edge:                                      ; preds = %.thread
  %47 = icmp eq i32 %41, 0
  br i1 %47, label %48, label %.loopexit, !llvm.loop !76

48:                                               ; preds = %._crit_edge
  %49 = load ptr, ptr %19, align 8, !tbaa !10
  %50 = getelementptr inbounds nuw i8, ptr %49, i64 48
  %51 = load ptr, ptr %50, align 8, !tbaa !40
  %52 = zext nneg i32 %24 to i64
  %53 = getelementptr inbounds nuw %struct.H5F_mount_t, ptr %51, i64 %52, i32 1
  %54 = load ptr, ptr %53, align 8, !tbaa !41
  %55 = getelementptr inbounds nuw i8, ptr %54, i64 16
  %56 = load ptr, ptr %55, align 8, !tbaa !10
  %57 = getelementptr inbounds nuw i8, ptr %56, i64 1456
  %58 = load ptr, ptr %57, align 8, !tbaa !61
  %59 = tail call ptr @H5G_oloc(ptr noundef %58) #6
  %60 = tail call i32 @H5O_loc_free(ptr noundef nonnull %0) #6
  %61 = icmp slt i32 %60, 0
  br i1 %61, label %62, label %66

62:                                               ; preds = %48
  %63 = load i64, ptr @H5E_FILE_g, align 8, !tbaa !45
  %64 = load i64, ptr @H5E_CANTFREE_g, align 8, !tbaa !45
  %65 = tail call i32 (ptr, ptr, i32, i64, i64, ptr, ...) @H5E_printf_stack(ptr noundef nonnull @.str, ptr noundef nonnull @__func__.H5F_traverse_mount, i32 noundef 610, i64 noundef %63, i64 noundef %64, ptr noundef nonnull @.str.23) #6
  br label %.loopexit

66:                                               ; preds = %48
  %67 = tail call i32 @H5O_loc_copy_deep(ptr noundef nonnull %0, ptr noundef %59) #6
  %68 = icmp slt i32 %67, 0
  br i1 %68, label %69, label %73

69:                                               ; preds = %66
  %70 = load i64, ptr @H5E_FILE_g, align 8, !tbaa !45
  %71 = load i64, ptr @H5E_CANTCOPY_g, align 8, !tbaa !45
  %72 = tail call i32 (ptr, ptr, i32, i64, i64, ptr, ...) @H5E_printf_stack(ptr noundef nonnull @.str, ptr noundef nonnull @__func__.H5F_traverse_mount, i32 noundef 614, i64 noundef %70, i64 noundef %71, ptr noundef nonnull @.str.24) #6
  br label %.loopexit

73:                                               ; preds = %66
  store ptr %54, ptr %0, align 8, !tbaa !62
  br label %.outer, !llvm.loop !76

.loopexit:                                        ; preds = %.outer, %._crit_edge, %11, %62, %69, %15
  %.0 = phi i32 [ -1, %11 ], [ -1, %62 ], [ -1, %69 ], [ 0, %15 ], [ 0, %._crit_edge ], [ 0, %.outer ]
  ret i32 %.0
}